target datalayout = "e-m:e-p270:32:32-p271:32:32-p272:64:64-i64:64-i128:128-f80:128-n8:16:32:64-S128"
target triple = "x86_64-pc-linux-gnu"

%"class.sat::literal" = type { i32 }
%class.rational = type { %class.mpq }
%class.mpq = type { %class.mpz, %class.mpz }
%class.mpz = type { i32, i8, ptr }
%class.ref_vector = type { %class.ref_vector_core }
%class.ref_vector_core = type { %class.ref_manager_wrapper, %class.ptr_vector }
%class.ref_manager_wrapper = type { ptr }
%class.ptr_vector = type { %class.vector.4 }
%class.vector.4 = type { ptr }
%class.pb_util = type { ptr, i32, %class.vector.289, %class.vector.290, %class.rational }
%class.vector.289 = type { ptr }
%class.vector.290 = type { ptr }
%class.svector.87 = type { %class.vector.88 }
%class.vector.88 = type { ptr }
%class.ptr_vector.164 = type { %class.vector.165 }
%class.vector.165 = type { ptr }
%class.svector.5 = type { %class.vector.6 }
%class.vector.6 = type { ptr }
%class.svector.195 = type { %class.vector.196 }
%class.vector.196 = type { ptr }
%class.uint_set = type { %class.svector.5 }
%class.svector.254 = type { %class.vector.255 }
%class.vector.255 = type { ptr }
%class.svector.11 = type { %class.vector.12 }
%class.vector.12 = type { ptr }
%"class.smt::theory_pb" = type { %"class.smt::theory.base", [3 x i8], %struct.theory_pb_params, %class.svector.291, %class.mpz_manager, %class._scoped_numeral_vector, %class.svector.5, %class.svector.5, %class.svector.195, %class.pb_util, %"struct.smt::theory_pb::stats", i32, i8, i32, i32, %class.uint_set, %class.svector.5, %class.svector.5, i32, %class.svector.195, i32, %class.svector.87, %class.svector.5, i32, %class.svector.195, %class.tracked_uint_set, %class.ref_vector, %class.svector.11, %class.ref_vector, %class.svector.11, %class.vector.295, %class.svector.5 }
%"class.smt::theory.base" = type <{ ptr, i32, [4 x i8], ptr, ptr, %class.ptr_vector.164, %class.svector.5, i32, i8 }>
%struct.theory_pb_params = type <{ i32, i8, [3 x i8] }>
%class.svector.291 = type { %class.vector.292 }
%class.vector.292 = type { ptr }
%class.mpz_manager = type { %class.small_object_allocator, %"class.std::recursive_mutex", [4 x i8], i32, %class.mpz, %class.mpz }
%class.small_object_allocator = type { [32 x ptr], [32 x ptr], i64 }
%"class.std::recursive_mutex" = type { %"class.std::__recursive_mutex_base" }
%"class.std::__recursive_mutex_base" = type { %union.pthread_mutex_t }
%union.pthread_mutex_t = type { %struct.__pthread_mutex_s }
%struct.__pthread_mutex_s = type { i32, i32, i32, i32, i32, i16, i16, %struct.__pthread_internal_list }
%struct.__pthread_internal_list = type { ptr, ptr }
%class._scoped_numeral_vector = type { %class.svector.293, ptr }
%class.svector.293 = type { %class.vector.294 }
%class.vector.294 = type { ptr }
%"struct.smt::theory_pb::stats" = type { i32, i32, i32, i32 }
%class.tracked_uint_set = type { %class.svector.254, %class.svector.5 }
%class.vector.295 = type { ptr }
%"struct.smt::theory_pb::var_info" = type { [2 x ptr], ptr, [2 x ptr], ptr }
%class.vector.303 = type { ptr }

; Function Attrs: mustprogress nounwind uwtable
define linkonce_odr hidden void @_ZN6vectorIPN3smt9theory_pb4cardELb0EjE8pop_backEv(ptr noundef nonnull align 8 dereferenceable(8) %0) #4 comdat align 2 {
  %2 = alloca ptr, align 8
  store ptr %0, ptr %2, align 8, !tbaa !793
  %3 = load ptr, ptr %2, align 8
  %4 = getelementptr inbounds nuw %class.vector.303, ptr %3, i32 0, i32 0
  %5 = load ptr, ptr %4, align 8, !tbaa !797
  %6 = getelementptr inbounds i32, ptr %5, i64 -1
  %7 = load i32, ptr %6, align 4, !tbaa !8
  %8 = add i32 %7, -1
  store i32 %8, ptr %6, align 4, !tbaa !8
  ret void
}

; Function Attrs: inlinehint mustprogress nounwind uwtable
define linkonce_odr hidden void @_ZSt4swapIPN3smt9theory_pb4cardEENSt9enable_ifIXsr6__and_ISt6__not_ISt15__is_tuple_likeIT_EESt21is_move_constructibleIS7_ESt18is_move_assignableIS7_EEE5valueEvE4typeERS7_SG_(ptr noundef nonnull align 8 dereferenceable(8) %0, ptr noundef nonnull align 8 dereferenceable(8) %1) #8 comdat {
  %3 = alloca ptr, align 8
  %4 = alloca ptr, align 8
  %5 = alloca ptr, align 8
  store ptr %0, ptr %3, align 8, !tbaa !795
  store ptr %1, ptr %4, align 8, !tbaa !795
  call void @llvm.lifetime.start.p0(i64 8, ptr %5) #3
  %6 = load ptr, ptr %3, align 8, !tbaa !795
  %7 = load ptr, ptr %6, align 8, !tbaa !616
  store ptr %7, ptr %5, align 8, !tbaa !616
  %8 = load ptr, ptr %4, align 8, !tbaa !795
  %9 = load ptr, ptr %8, align 8, !tbaa !616
  %10 = load ptr, ptr %3, align 8, !tbaa !795
  store ptr %9, ptr %10, align 8, !tbaa !616
  %11 = load ptr, ptr %5, align 8, !tbaa !616
  %12 = load ptr, ptr %4, align 8, !tbaa !795
  store ptr %11, ptr %12, align 8, !tbaa !616
  call void @llvm.lifetime.end.p0(i64 8, ptr %5) #3
  ret void
}

; Function Attrs: mustprogress nounwind uwtable
define linkonce_odr hidden noundef nonnull align 8 dereferenceable(8) ptr @_ZN6vectorIPN3smt9theory_pb4cardELb0EjEixEj(ptr noundef nonnull align 8 dereferenceable(8) %0, i32 noundef %1) #4 comdat align 2 {
  %3 = alloca ptr, align 8
  %4 = alloca i32, align 4
  store ptr %0, ptr %3, align 8, !tbaa !793
  store i32 %1, ptr %4, align 4, !tbaa !8
  %5 = load ptr, ptr %3, align 8
  %6 = getelementptr inbounds nuw %class.vector.303, ptr %5, i32 0, i32 0
  %7 = load ptr, ptr %6, align 8, !tbaa !797
  %8 = load i32, ptr %4, align 4, !tbaa !8
  %9 = zext i32 %8 to i64
  %10 = getelementptr inbounds nuw ptr, ptr %7, i64 %9
  ret ptr %10
}

; Function Attrs: mustprogress nounwind uwtable
define linkonce_odr hidden noundef i32 @_ZNK6vectorIPN3smt9theory_pb4cardELb0EjE4sizeEv(ptr noundef nonnull align 8 dereferenceable(8) %0) #4 comdat align 2 {
  %2 = alloca i32, align 4
  %3 = alloca ptr, align 8
  store ptr %0, ptr %3, align 8, !tbaa !793
  %4 = load ptr, ptr %3, align 8
  %5 = getelementptr inbounds nuw %class.vector.303, ptr %4, i32 0, i32 0
  %6 = load ptr, ptr %5, align 8, !tbaa !797
  %7 = icmp eq ptr %6, null
  br i1 %7, label %8, label %9

8:                                                ; preds = %1
  store i32 0, ptr %2, align 4
  br label %14

9:                                                ; preds = %1
  %10 = getelementptr inbounds nuw %class.vector.303, ptr %4, i32 0, i32 0
  %11 = load ptr, ptr %10, align 8, !tbaa !797
  %12 = getelementptr inbounds i32, ptr %11, i64 -1
  %13 = load i32, ptr %12, align 4, !tbaa !8
  store i32 %13, ptr %2, align 4
  br label %14

14:                                               ; preds = %9, %8
  %15 = load i32, ptr %2, align 4
  ret i32 %15
}

; Function Attrs: mustprogress uwtable
define hidden void @_ZN3smt9theory_pb6removeER10ptr_vectorINS0_4cardEEPS2_(ptr noundef nonnull align 8 dereferenceable(968) %0, ptr noundef nonnull align 8 dereferenceable(8) %1, ptr noundef %2) #6 align 2 {
  %4 = alloca ptr, align 8
  %5 = alloca ptr, align 8
  %6 = alloca ptr, align 8
  %7 = alloca i32, align 4
  %8 = alloca i32, align 4
  store ptr %0, ptr %4, align 8, !tbaa !624
  store ptr %1, ptr %5, align 8, !tbaa !635
  store ptr %2, ptr %6, align 8, !tbaa !616
  call void @llvm.lifetime.start.p0(i64 4, ptr %7) #3
  store i32 0, ptr %7, align 4, !tbaa !8
  br label %9

9:                                                ; preds = %33, %3
  %10 = load i32, ptr %7, align 4, !tbaa !8
  %11 = load ptr, ptr %5, align 8, !tbaa !635
  %12 = call noundef i32 @_ZNK6vectorIPN3smt9theory_pb4cardELb0EjE4sizeEv(ptr noundef nonnull align 8 dereferenceable(8) %11)
  %13 = icmp ult i32 %10, %12
  br i1 %13, label %15, label %14

14:                                               ; preds = %9
  store i32 2, ptr %8, align 4
  br label %36

15:                                               ; preds = %9
  %16 = load ptr, ptr %5, align 8, !tbaa !635
  %17 = load i32, ptr %7, align 4, !tbaa !8
  %18 = call noundef nonnull align 8 dereferenceable(8) ptr @_ZN6vectorIPN3smt9theory_pb4cardELb0EjEixEj(ptr noundef nonnull align 8 dereferenceable(8) %16, i32 noundef %17)
  %19 = load ptr, ptr %18, align 8, !tbaa !616
  %20 = load ptr, ptr %6, align 8, !tbaa !616
  %21 = icmp eq ptr %19, %20
  br i1 %21, label %22, label %32

22:                                               ; preds = %15
  %23 = load ptr, ptr %5, align 8, !tbaa !635
  %24 = load i32, ptr %7, align 4, !tbaa !8
  %25 = call noundef nonnull align 8 dereferenceable(8) ptr @_ZN6vectorIPN3smt9theory_pb4cardELb0EjEixEj(ptr noundef nonnull align 8 dereferenceable(8) %23, i32 noundef %24)
  %26 = load ptr, ptr %5, align 8, !tbaa !635
  %27 = load ptr, ptr %5, align 8, !tbaa !635
  %28 = call noundef i32 @_ZNK6vectorIPN3smt9theory_pb4cardELb0EjE4sizeEv(ptr noundef nonnull align 8 dereferenceable(8) %27)
  %29 = sub i32 %28, 1
  %30 = call noundef nonnull align 8 dereferenceable(8) ptr @_ZN6vectorIPN3smt9theory_pb4cardELb0EjEixEj(ptr noundef nonnull align 8 dereferenceable(8) %26, i32 noundef %29)
  call void @_ZSt4swapIPN3smt9theory_pb4cardEENSt9enable_ifIXsr6__and_ISt6__not_ISt15__is_tuple_likeIT_EESt21is_move_constructibleIS7_ESt18is_move_assignableIS7_EEE5valueEvE4typeERS7_SG_(ptr noundef nonnull align 8 dereferenceable(8) %25, ptr noundef nonnull align 8 dereferenceable(8) %30) #3
  %31 = load ptr, ptr %5, align 8, !tbaa !635
  call void @_ZN6vectorIPN3smt9theory_pb4cardELb0EjE8pop_backEv(ptr noundef nonnull align 8 dereferenceable(8) %31)
  store i32 2, ptr %8, align 4
  br label %36

32:                                               ; preds = %15
  br label %33

33:                                               ; preds = %32
  %34 = load i32, ptr %7, align 4, !tbaa !8
  %35 = add i32 %34, 1
  store i32 %35, ptr %7, align 4, !tbaa !8
  br label %9, !llvm.loop !799

36:                                               ; preds = %22, %14
  call void @llvm.lifetime.end.p0(i64 4, ptr %7) #3
  br label %37

37:                                               ; preds = %36
  ret void
}

; Function Attrs: mustprogress nounwind uwtable
define linkonce_odr hidden noundef zeroext i1 @_ZNK3sat7literal4signEv(ptr noundef nonnull align 4 dereferenceable(4) %0) #4 comdat align 2 {
  %2 = alloca ptr, align 8
  store ptr %0, ptr %2, align 8, !tbaa !3
  %3 = load ptr, ptr %2, align 8
  %4 = getelementptr inbounds nuw %"class.sat::literal", ptr %3, i32 0, i32 0
  %5 = load i32, ptr %4, align 4, !tbaa !14
  %6 = zext i32 %5 to i64
  %7 = and i64 %6, 1
  %8 = icmp ne i64 %7, 0
  ret i1 %8
}

; Function Attrs: mustprogress nounwind uwtable
define linkonce_odr hidden noundef nonnull align 8 dereferenceable(48) ptr @_ZN6vectorIN3smt9theory_pb8var_infoELb0EjEixEj(ptr noundef nonnull align 8 dereferenceable(8) %0, i32 noundef %1) #4 comdat align 2 {
  %3 = alloca ptr, align 8
  %4 = alloca i32, align 4
  store ptr %0, ptr %3, align 8, !tbaa !699
  store i32 %1, ptr %4, align 4, !tbaa !8
  %5 = load ptr, ptr %3, align 8
  %6 = getelementptr inbounds nuw %class.vector.292, ptr %5, i32 0, i32 0
  %7 = load ptr, ptr %6, align 8, !tbaa !729
  %8 = load i32, ptr %4, align 4, !tbaa !8
  %9 = zext i32 %8 to i64
  %10 = getelementptr inbounds nuw %"struct.smt::theory_pb::var_info", ptr %7, i64 %9
  ret ptr %10
}

; Function Attrs: mustprogress nounwind uwtable
define linkonce_odr hidden noundef i32 @_ZNK3sat7literal3varEv(ptr noundef nonnull align 4 dereferenceable(4) %0) #4 comdat align 2 {
  %2 = alloca ptr, align 8
  store ptr %0, ptr %2, align 8, !tbaa !3
  %3 = load ptr, ptr %2, align 8
  %4 = getelementptr inbounds nuw %"class.sat::literal", ptr %3, i32 0, i32 0
  %5 = load i32, ptr %4, align 4, !tbaa !14
  %6 = lshr i32 %5, 1
  ret i32 %6
}

; Function Attrs: mustprogress nounwind uwtable
define linkonce_odr hidden noundef i32 @_ZNK6vectorIN3smt9theory_pb8var_infoELb0EjE4sizeEv(ptr noundef nonnull align 8 dereferenceable(8) %0) #4 comdat align 2 {
  %2 = alloca i32, align 4
  %3 = alloca ptr, align 8
  store ptr %0, ptr %3, align 8, !tbaa !699
  %4 = load ptr, ptr %3, align 8
  %5 = getelementptr inbounds nuw %class.vector.292, ptr %4, i32 0, i32 0
  %6 = load ptr, ptr %5, align 8, !tbaa !729
  %7 = icmp eq ptr %6, null
  br i1 %7, label %8, label %9

8:                                                ; preds = %1
  store i32 0, ptr %2, align 4
  br label %14

9:                                                ; preds = %1
  %10 = getelementptr inbounds nuw %class.vector.292, ptr %4, i32 0, i32 0
  %11 = load ptr, ptr %10, align 8, !tbaa !729
  %12 = getelementptr inbounds i32, ptr %11, i64 -1
  %13 = load i32, ptr %12, align 4, !tbaa !8
  store i32 %13, ptr %2, align 4
  br label %14

14:                                               ; preds = %9, %8
  %15 = load i32, ptr %2, align 4
  ret i32 %15
}

; Function Attrs: mustprogress uwtable
define hidden void @_ZN3smt9theory_pb15unwatch_literalEN3sat7literalEPNS0_4cardE(ptr noundef nonnull align 8 dereferenceable(968) %0, i32 %1, ptr noundef %2) #6 align 2 {
  %4 = alloca %"class.sat::literal", align 4
  %5 = alloca ptr, align 8
  %6 = alloca ptr, align 8
  %7 = alloca ptr, align 8
  %8 = getelementptr inbounds nuw %"class.sat::literal", ptr %4, i32 0, i32 0
  store i32 %1, ptr %8, align 4
  store ptr %0, ptr %5, align 8, !tbaa !624
  store ptr %2, ptr %6, align 8, !tbaa !616
  %9 = load ptr, ptr %5, align 8
  %10 = getelementptr inbounds nuw %"class.smt::theory_pb", ptr %9, i32 0, i32 3
  %11 = call noundef i32 @_ZNK6vectorIN3smt9theory_pb8var_infoELb0EjE4sizeEv(ptr noundef nonnull align 8 dereferenceable(8) %10)
  %12 = call noundef i32 @_ZNK3sat7literal3varEv(ptr noundef nonnull align 4 dereferenceable(4) %4)
  %13 = icmp ule i32 %11, %12
  br i1 %13, label %14, label %15

14:                                               ; preds = %3
  br label %30

15:                                               ; preds = %3
  call void @llvm.lifetime.start.p0(i64 8, ptr %7) #3
  %16 = getelementptr inbounds nuw %"class.smt::theory_pb", ptr %9, i32 0, i32 3
  %17 = call noundef i32 @_ZNK3sat7literal3varEv(ptr noundef nonnull align 4 dereferenceable(4) %4)
  %18 = call noundef nonnull align 8 dereferenceable(48) ptr @_ZN6vectorIN3smt9theory_pb8var_infoELb0EjEixEj(ptr noundef nonnull align 8 dereferenceable(8) %16, i32 noundef %17)
  %19 = getelementptr inbounds nuw %"struct.smt::theory_pb::var_info", ptr %18, i32 0, i32 2
  %20 = call noundef zeroext i1 @_ZNK3sat7literal4signEv(ptr noundef nonnull align 4 dereferenceable(4) %4)
  %21 = zext i1 %20 to i64
  %22 = getelementptr inbounds nuw [2 x ptr], ptr %19, i64 0, i64 %21
  %23 = load ptr, ptr %22, align 8, !tbaa !635
  store ptr %23, ptr %7, align 8, !tbaa !635
  %24 = load ptr, ptr %7, align 8, !tbaa !635
  %25 = icmp ne ptr %24, null
  br i1 %25, label %26, label %29

26:                                               ; preds = %15
  %27 = load ptr, ptr %7, align 8, !tbaa !635
  %28 = load ptr, ptr %6, align 8, !tbaa !616
  call void @_ZN3smt9theory_pb6removeER10ptr_vectorINS0_4cardEEPS2_(ptr noundef nonnull align 8 dereferenceable(968) %9, ptr noundef nonnull align 8 dereferenceable(8) %27, ptr noundef %28)
  br label %29

29:                                               ; preds = %26, %15
  call void @llvm.lifetime.end.p0(i64 8, ptr %7) #3
  br label %30

30:                                               ; preds = %29, %14
  ret void
}