; Function Attrs: mustprogress nofree norecurse nosync nounwind memory(readwrite, inaccessiblemem: none) uwtable
define hidden void @_ZN3smt9theory_pb15unwatch_literalEN3sat7literalEPNS0_4cardE(ptr noundef nonnull readonly align 8 captures(none) dereferenceable(968) %0, i32 %1, ptr noundef readnone captures(address) %2) local_unnamed_addr #10 align 2 {
  %4 = getelementptr inbounds nuw i8, ptr %0, i64 64
  %5 = load ptr, ptr %4, align 8, !tbaa !700
  %6 = icmp eq ptr %5, null
  br i1 %6, label %_ZN3smt9theory_pb6removeER10ptr_vectorINS0_4cardEEPS2_.exit, label %_ZNK6vectorIN3smt9theory_pb8var_infoELb0EjE4sizeEv.exit

_ZNK6vectorIN3smt9theory_pb8var_infoELb0EjE4sizeEv.exit: ; preds = %3
  %7 = getelementptr inbounds i8, ptr %5, i64 -4
  %8 = load i32, ptr %7, align 4, !tbaa !9
  %9 = lshr i32 %1, 1
  %.not = icmp ugt i32 %8, %9
  br i1 %.not, label %10, label %_ZN3smt9theory_pb6removeER10ptr_vectorINS0_4cardEEPS2_.exit

10:                                               ; preds = %_ZNK6vectorIN3smt9theory_pb8var_infoELb0EjE4sizeEv.exit
  %11 = zext nneg i32 %9 to i64
  %12 = and i32 %1, 1
  %13 = zext nneg i32 %12 to i64
  %14 = getelementptr inbounds nuw %"struct.smt::theory_pb::var_info", ptr %5, i64 %11, i32 2, i64 %13
  %15 = load ptr, ptr %14, align 8, !tbaa !702
  %.not4 = icmp eq ptr %15, null
  br i1 %.not4, label %_ZN3smt9theory_pb6removeER10ptr_vectorINS0_4cardEEPS2_.exit, label %16

16:                                               ; preds = %10
  %17 = load ptr, ptr %15, align 8, !tbaa !704
  %18 = icmp eq ptr %17, null
  br i1 %18, label %_ZN3smt9theory_pb6removeER10ptr_vectorINS0_4cardEEPS2_.exit, label %.split.i

.split.i:                                         ; preds = %16
  %19 = getelementptr inbounds i8, ptr %17, i64 -4
  %20 = load i32, ptr %19, align 4, !tbaa !9
  %wide.trip.count.i = zext i32 %20 to i64
  br label %_ZNK6vectorIPN3smt9theory_pb4cardELb0EjE4sizeEv.exit.i

_ZNK6vectorIPN3smt9theory_pb4cardELb0EjE4sizeEv.exit.i: ; preds = %21, %.split.i
  %indvars.iv.i = phi i64 [ %indvars.iv.next.i, %21 ], [ 0, %.split.i ]
  %exitcond.not.i = icmp eq i64 %indvars.iv.i, %wide.trip.count.i
  br i1 %exitcond.not.i, label %_ZN3smt9theory_pb6removeER10ptr_vectorINS0_4cardEEPS2_.exit, label %21

21:                                               ; preds = %_ZNK6vectorIPN3smt9theory_pb4cardELb0EjE4sizeEv.exit.i
  %22 = getelementptr inbounds nuw ptr, ptr %17, i64 %indvars.iv.i
  %23 = load ptr, ptr %22, align 8, !tbaa !707
  %24 = icmp eq ptr %23, %2
  %indvars.iv.next.i = add nuw nsw i64 %indvars.iv.i, 1
  br i1 %24, label %_ZNK6vectorIPN3smt9theory_pb4cardELb0EjE4sizeEv.exit11.i, label %_ZNK6vectorIPN3smt9theory_pb4cardELb0EjE4sizeEv.exit.i, !llvm.loop !712

_ZNK6vectorIPN3smt9theory_pb4cardELb0EjE4sizeEv.exit11.i: ; preds = %21
  %25 = getelementptr inbounds nuw ptr, ptr %17, i64 %indvars.iv.i
  %26 = add i32 %20, -1
  %27 = zext i32 %26 to i64
  %28 = getelementptr inbounds nuw ptr, ptr %17, i64 %27
  %29 = load ptr, ptr %28, align 8, !tbaa !707
  store ptr %29, ptr %25, align 8, !tbaa !707
  store ptr %23, ptr %28, align 8, !tbaa !707
  store i32 %26, ptr %19, align 4, !tbaa !9
  br label %_ZN3smt9theory_pb6removeER10ptr_vectorINS0_4cardEEPS2_.exit

_ZN3smt9theory_pb6removeER10ptr_vectorINS0_4cardEEPS2_.exit: ; preds = %_ZNK6vectorIPN3smt9theory_pb4cardELb0EjE4sizeEv.exit.i, %3, %_ZNK6vectorIPN3smt9theory_pb4cardELb0EjE4sizeEv.exit11.i, %16, %10, %_ZNK6vectorIN3smt9theory_pb8var_infoELb0EjE4sizeEv.exit
  ret void
}